target datalayout = "e-m:e-p270:32:32-p271:32:32-p272:64:64-i64:64-i128:128-f80:128-n8:16:32:64-S128"
target triple = "x86_64-pc-linux-gnu"

%struct.darktable_t = type { %struct.dt_codepath_t, i32, i32, ptr, ptr, ptr, ptr, ptr, ptr, ptr, ptr, ptr, ptr, ptr, ptr, ptr, ptr, ptr, ptr, ptr, ptr, ptr, ptr, ptr, ptr, ptr, ptr, ptr, ptr, ptr, [64 x %struct.dt_pthread_mutex_t], %struct.dt_pthread_mutex_t, %struct.dt_pthread_mutex_t, %struct.dt_pthread_mutex_t, %struct.dt_pthread_mutex_t, %struct.dt_pthread_mutex_t, ptr, ptr, ptr, ptr, ptr, ptr, ptr, ptr, ptr, ptr, ptr, ptr, ptr, %struct.dt_lua_state_t, ptr, double, ptr, i32, [47 x i32], i32, i32, ptr, ptr, %struct.dt_sys_resources_t, %struct.dt_backthumb_t, %struct.dt_gimp_t }
%struct.dt_codepath_t = type { i8, [3 x i8] }
%struct.dt_pthread_mutex_t = type { %union.pthread_mutex_t }
%union.pthread_mutex_t = type { %struct.__pthread_mutex_s }
%struct.__pthread_mutex_s = type { i32, i32, i32, i32, i32, i16, i16, %struct.__pthread_internal_list }
%struct.__pthread_internal_list = type { ptr, ptr }
%struct.dt_lua_state_t = type { i32 }
%struct.dt_sys_resources_t = type { i64, i64, ptr, ptr, i32 }
%struct.dt_backthumb_t = type { double, double, i32, i32, i32, i32 }
%struct.dt_gimp_t = type { i32, ptr, ptr, i32, i32 }
%struct._GtkTreeIter = type { i32, ptr, ptr, ptr }
%struct.dt_gui_gtk_t = type { ptr, %struct.dt_gui_widgets_t, %struct.dt_gui_scrollbars_t, i32, ptr, i32, [39 x %struct._GdkRGBA], i32, i32, i32, i32, i32, double, double, double, double, ptr, double, double, double, double, i32, i32, [4096 x i8], i32, i32, i32, %struct.dt_pthread_mutex_t }
%struct.dt_gui_widgets_t = type { ptr, ptr, ptr, ptr, i32, i32, i32 }
%struct.dt_gui_scrollbars_t = type { ptr, ptr, i32 }
%struct._GdkRGBA = type { double, double, double, double }
%struct._GList = type { ptr, ptr, ptr }

@darktable = external global %struct.darktable_t, align 8
@.str.28 = private unnamed_addr constant [44 x i8] c"do you want to delete this empty directory?\00", align 1
@.str.29 = private unnamed_addr constant [47 x i8] c"do you want to delete these empty directories?\00", align 1
@.str.30 = private unnamed_addr constant [24 x i8] c"delete empty directory?\00", align 1
@.str.31 = private unnamed_addr constant [26 x i8] c"delete empty directories?\00", align 1
@.str.32 = private unnamed_addr constant [14 x i8] c"delete-dialog\00", align 1
@.str.33 = private unnamed_addr constant [5 x i8] c"name\00", align 1
@.str.34 = private unnamed_addr constant [5 x i8] c"text\00", align 1

; Function Attrs: nounwind uwtable
define internal i32 @ask_and_delete(ptr noundef %0) #0 {
  %2 = alloca ptr, align 8
  %3 = alloca ptr, align 8
  %4 = alloca i32, align 4
  %5 = alloca ptr, align 8
  %6 = alloca ptr, align 8
  %7 = alloca ptr, align 8
  %8 = alloca ptr, align 8
  %9 = alloca ptr, align 8
  %10 = alloca ptr, align 8
  %11 = alloca %struct._GtkTreeIter, align 8
  %12 = alloca ptr, align 8
  %13 = alloca ptr, align 8
  %14 = alloca i32, align 4
  %15 = alloca ptr, align 8
  store ptr %0, ptr %2, align 8, !tbaa !23
  call void @llvm.lifetime.start.p0(i64 8, ptr %3) #8
  %16 = load ptr, ptr %2, align 8, !tbaa !23
  store ptr %16, ptr %3, align 8, !tbaa !80
  call void @llvm.lifetime.start.p0(i64 4, ptr %4) #8
  %17 = load ptr, ptr %3, align 8, !tbaa !80
  %18 = call i32 @g_list_length(ptr noundef %17)
  store i32 %18, ptr %4, align 4, !tbaa !24
  call void @llvm.lifetime.start.p0(i64 8, ptr %5) #8
  call void @llvm.lifetime.start.p0(i64 8, ptr %6) #8
  %19 = load ptr, ptr getelementptr inbounds nuw (%struct.darktable_t, ptr @darktable, i32 0, i32 14), align 8, !tbaa !81
  %20 = getelementptr inbounds nuw %struct.dt_gui_gtk_t, ptr %19, i32 0, i32 0
  %21 = load ptr, ptr %20, align 8, !tbaa !82
  %22 = call ptr @dt_ui_main_window(ptr noundef %21)
  store ptr %22, ptr %6, align 8, !tbaa !88
  %23 = load ptr, ptr %6, align 8, !tbaa !88
  %24 = call i64 @gtk_window_get_type() #11
  %25 = call ptr @g_type_check_instance_cast(ptr noundef %23, i64 noundef %24)
  %26 = load i32, ptr %4, align 4, !tbaa !24
  %27 = sext i32 %26 to i64
  %28 = call ptr @dcngettext(ptr noundef null, ptr noundef @.str.28, ptr noundef @.str.29, i64 noundef %27, i32 noundef 5) #8
  %29 = call ptr (ptr, i32, i32, i32, ptr, ...) @gtk_message_dialog_new(ptr noundef %25, i32 noundef 2, i32 noundef 2, i32 noundef 4, ptr noundef %28)
  store ptr %29, ptr %5, align 8, !tbaa !88
  %30 = load ptr, ptr %5, align 8, !tbaa !88
  %31 = call i64 @gtk_window_get_type() #11
  %32 = call ptr @g_type_check_instance_cast(ptr noundef %30, i64 noundef %31)
  %33 = load i32, ptr %4, align 4, !tbaa !24
  %34 = sext i32 %33 to i64
  %35 = call ptr @dcngettext(ptr noundef null, ptr noundef @.str.30, ptr noundef @.str.31, i64 noundef %34, i32 noundef 5) #8
  call void @gtk_window_set_title(ptr noundef %32, ptr noundef %35)
  call void @llvm.lifetime.start.p0(i64 8, ptr %7) #8
  %36 = load ptr, ptr %5, align 8, !tbaa !88
  %37 = call i64 @gtk_dialog_get_type() #11
  %38 = call ptr @g_type_check_instance_cast(ptr noundef %36, i64 noundef %37)
  %39 = call ptr @gtk_dialog_get_content_area(ptr noundef %38)
  store ptr %39, ptr %7, align 8, !tbaa !88
  call void @llvm.lifetime.start.p0(i64 8, ptr %8) #8
  %40 = call ptr @gtk_scrolled_window_new(ptr noundef null, ptr noundef null)
  store ptr %40, ptr %8, align 8, !tbaa !88
  %41 = load ptr, ptr %8, align 8, !tbaa !88
  call void @gtk_widget_set_vexpand(ptr noundef %41, i32 noundef 1)
  call void @llvm.lifetime.start.p0(i64 8, ptr %9) #8
  %42 = call ptr (i32, ...) @gtk_list_store_new(i32 noundef 1, i64 noundef 64)
  store ptr %42, ptr %9, align 8, !tbaa !89
  call void @llvm.lifetime.start.p0(i64 8, ptr %10) #8
  %43 = load ptr, ptr %3, align 8, !tbaa !80
  store ptr %43, ptr %10, align 8, !tbaa !80
  br label %44

44:                                               ; preds = %62, %1
  %45 = load ptr, ptr %10, align 8, !tbaa !80
  %46 = icmp ne ptr %45, null
  br i1 %46, label %48, label %47

47:                                               ; preds = %44
  call void @llvm.lifetime.end.p0(i64 8, ptr %10) #8
  br label %64

48:                                               ; preds = %44
  call void @llvm.lifetime.start.p0(i64 32, ptr %11) #8
  %49 = load ptr, ptr %9, align 8, !tbaa !89
  call void @gtk_list_store_append(ptr noundef %49, ptr noundef %11)
  %50 = load ptr, ptr %9, align 8, !tbaa !89
  %51 = load ptr, ptr %10, align 8, !tbaa !80
  %52 = getelementptr inbounds nuw %struct._GList, ptr %51, i32 0, i32 0
  %53 = load ptr, ptr %52, align 8, !tbaa !91
  call void (ptr, ptr, ...) @gtk_list_store_set(ptr noundef %50, ptr noundef %11, i32 noundef 0, ptr noundef %53, i32 noundef -1)
  call void @llvm.lifetime.end.p0(i64 32, ptr %11) #8
  br label %54

54:                                               ; preds = %48
  %55 = load ptr, ptr %10, align 8, !tbaa !80
  %56 = icmp ne ptr %55, null
  br i1 %56, label %57, label %61

57:                                               ; preds = %54
  %58 = load ptr, ptr %10, align 8, !tbaa !80
  %59 = getelementptr inbounds nuw %struct._GList, ptr %58, i32 0, i32 1
  %60 = load ptr, ptr %59, align 8, !tbaa !93
  br label %62

61:                                               ; preds = %54
  br label %62

62:                                               ; preds = %61, %57
  %63 = phi ptr [ %60, %57 ], [ null, %61 ]
  store ptr %63, ptr %10, align 8, !tbaa !80
  br label %44

64:                                               ; preds = %47
  call void @llvm.lifetime.start.p0(i64 8, ptr %12) #8
  %65 = load ptr, ptr %9, align 8, !tbaa !89
  %66 = call i64 @gtk_tree_model_get_type() #11
  %67 = call ptr @g_type_check_instance_cast(ptr noundef %65, i64 noundef %66)
  %68 = call ptr @gtk_tree_view_new_with_model(ptr noundef %67)
  store ptr %68, ptr %12, align 8, !tbaa !88
  %69 = load ptr, ptr %12, align 8, !tbaa !88
  %70 = call i64 @gtk_tree_view_get_type() #11
  %71 = call ptr @g_type_check_instance_cast(ptr noundef %69, i64 noundef %70)
  call void @gtk_tree_view_set_headers_visible(ptr noundef %71, i32 noundef 0)
  %72 = load ptr, ptr %12, align 8, !tbaa !88
  %73 = call i64 @gtk_widget_get_type() #11
  %74 = call ptr @g_type_check_instance_cast(ptr noundef %72, i64 noundef %73)
  call void @gtk_widget_set_name(ptr noundef %74, ptr noundef @.str.32)
  call void @llvm.lifetime.start.p0(i64 8, ptr %13) #8
  %75 = call ptr @dcgettext(ptr noundef null, ptr noundef @.str.33, i32 noundef 5) #8
  %76 = call ptr @gtk_cell_renderer_text_new()
  %77 = call ptr (ptr, ptr, ...) @gtk_tree_view_column_new_with_attributes(ptr noundef %75, ptr noundef %76, ptr noundef @.str.34, i32 noundef 0, ptr noundef null)
  store ptr %77, ptr %13, align 8, !tbaa !94
  %78 = load ptr, ptr %12, align 8, !tbaa !88
  %79 = call i64 @gtk_tree_view_get_type() #11
  %80 = call ptr @g_type_check_instance_cast(ptr noundef %78, i64 noundef %79)
  %81 = load ptr, ptr %13, align 8, !tbaa !94
  %82 = call i32 @gtk_tree_view_append_column(ptr noundef %80, ptr noundef %81)
  %83 = load ptr, ptr %8, align 8, !tbaa !88
  %84 = call i64 @gtk_container_get_type() #11
  %85 = call ptr @g_type_check_instance_cast(ptr noundef %83, i64 noundef %84)
  %86 = load ptr, ptr %12, align 8, !tbaa !88
  call void @gtk_container_add(ptr noundef %85, ptr noundef %86)
  %87 = load ptr, ptr %8, align 8, !tbaa !88
  %88 = call i64 @gtk_scrolled_window_get_type() #11
  %89 = call ptr @g_type_check_instance_cast(ptr noundef %87, i64 noundef %88)
  call void @gtk_scrolled_window_set_policy(ptr noundef %89, i32 noundef 2, i32 noundef 1)
  %90 = load ptr, ptr %8, align 8, !tbaa !88
  %91 = call i64 @gtk_scrolled_window_get_type() #11
  %92 = call ptr @g_type_check_instance_cast(ptr noundef %90, i64 noundef %91)
  %93 = load ptr, ptr getelementptr inbounds nuw (%struct.darktable_t, ptr @darktable, i32 0, i32 14), align 8, !tbaa !81
  %94 = getelementptr inbounds nuw %struct.dt_gui_gtk_t, ptr %93, i32 0, i32 18
  %95 = load double, ptr %94, align 8, !tbaa !96
  %96 = fmul reassoc nsz arcp contract afn double 2.500000e+01, %95
  %97 = fptosi double %96 to i32
  call void @gtk_scrolled_window_set_min_content_height(ptr noundef %92, i32 noundef %97)
  %98 = load ptr, ptr %7, align 8, !tbaa !88
  %99 = call i64 @gtk_container_get_type() #11
  %100 = call ptr @g_type_check_instance_cast(ptr noundef %98, i64 noundef %99)
  %101 = load ptr, ptr %8, align 8, !tbaa !88
  call void @gtk_container_add(ptr noundef %100, ptr noundef %101)
  %102 = load ptr, ptr %5, align 8, !tbaa !88
  call void @gtk_widget_show_all(ptr noundef %102)
  call void @llvm.lifetime.start.p0(i64 4, ptr %14) #8
  %103 = load ptr, ptr %5, align 8, !tbaa !88
  %104 = call i64 @gtk_dialog_get_type() #11
  %105 = call ptr @g_type_check_instance_cast(ptr noundef %103, i64 noundef %104)
  %106 = call i32 @gtk_dialog_run(ptr noundef %105)
  store i32 %106, ptr %14, align 4, !tbaa !24
  %107 = load ptr, ptr %5, align 8, !tbaa !88
  call void @gtk_widget_destroy(ptr noundef %107)
  %108 = load i32, ptr %14, align 4, !tbaa !24
  %109 = icmp eq i32 %108, -8
  br i1 %109, label %110, label %132

110:                                              ; preds = %64
  call void @llvm.lifetime.start.p0(i64 8, ptr %15) #8
  %111 = load ptr, ptr %3, align 8, !tbaa !80
  store ptr %111, ptr %15, align 8, !tbaa !80
  br label %112

112:                                              ; preds = %129, %110
  %113 = load ptr, ptr %15, align 8, !tbaa !80
  %114 = icmp ne ptr %113, null
  br i1 %114, label %116, label %115

115:                                              ; preds = %112
  call void @llvm.lifetime.end.p0(i64 8, ptr %15) #8
  br label %131

116:                                              ; preds = %112
  %117 = load ptr, ptr %15, align 8, !tbaa !80
  %118 = getelementptr inbounds nuw %struct._GList, ptr %117, i32 0, i32 0
  %119 = load ptr, ptr %118, align 8, !tbaa !91
  %120 = call i32 @rmdir(ptr noundef %119) #8
  br label %121

121:                                              ; preds = %116
  %122 = load ptr, ptr %15, align 8, !tbaa !80
  %123 = icmp ne ptr %122, null
  br i1 %123, label %124, label %128

124:                                              ; preds = %121
  %125 = load ptr, ptr %15, align 8, !tbaa !80
  %126 = getelementptr inbounds nuw %struct._GList, ptr %125, i32 0, i32 1
  %127 = load ptr, ptr %126, align 8, !tbaa !93
  br label %129

128:                                              ; preds = %121
  br label %129

129:                                              ; preds = %128, %124
  %130 = phi ptr [ %127, %124 ], [ null, %128 ]
  store ptr %130, ptr %15, align 8, !tbaa !80
  br label %112

131:                                              ; preds = %115
  br label %132

132:                                              ; preds = %131, %64
  %133 = load ptr, ptr %3, align 8, !tbaa !80
  call void @g_list_free_full(ptr noundef %133, ptr noundef @g_free)
  %134 = load ptr, ptr %9, align 8, !tbaa !89
  call void @g_object_unref(ptr noundef %134)
  call void @llvm.lifetime.end.p0(i64 4, ptr %14) #8
  call void @llvm.lifetime.end.p0(i64 8, ptr %13) #8
  call void @llvm.lifetime.end.p0(i64 8, ptr %12) #8
  call void @llvm.lifetime.end.p0(i64 8, ptr %9) #8
  call void @llvm.lifetime.end.p0(i64 8, ptr %8) #8
  call void @llvm.lifetime.end.p0(i64 8, ptr %7) #8
  call void @llvm.lifetime.end.p0(i64 8, ptr %6) #8
  call void @llvm.lifetime.end.p0(i64 8, ptr %5) #8
  call void @llvm.lifetime.end.p0(i64 4, ptr %4) #8
  call void @llvm.lifetime.end.p0(i64 8, ptr %3) #8
  ret i32 0
}