; Function Attrs: nounwind uwtable
define internal noundef i32 @ask_and_delete(ptr noundef %0) #0 {
  %2 = alloca %struct._GtkTreeIter, align 8
  %3 = tail call i32 @g_list_length(ptr noundef %0) #11
  %4 = load ptr, ptr getelementptr inbounds nuw (i8, ptr @darktable, i64 104), align 8, !tbaa !70
  %5 = load ptr, ptr %4, align 8, !tbaa !71
  %6 = tail call ptr @dt_ui_main_window(ptr noundef %5) #11
  %7 = tail call i64 @gtk_window_get_type() #15
  %8 = tail call ptr @g_type_check_instance_cast(ptr noundef %6, i64 noundef %7) #11
  %9 = sext i32 %3 to i64
  %10 = tail call ptr @dcngettext(ptr noundef null, ptr noundef nonnull @.str.28, ptr noundef nonnull @.str.29, i64 noundef %9, i32 noundef 5) #11
  %11 = tail call ptr (ptr, i32, i32, i32, ptr, ...) @gtk_message_dialog_new(ptr noundef %8, i32 noundef 2, i32 noundef 2, i32 noundef 4, ptr noundef %10) #11
  %12 = tail call ptr @g_type_check_instance_cast(ptr noundef %11, i64 noundef %7) #11
  %13 = tail call ptr @dcngettext(ptr noundef null, ptr noundef nonnull @.str.30, ptr noundef nonnull @.str.31, i64 noundef %9, i32 noundef 5) #11
  tail call void @gtk_window_set_title(ptr noundef %12, ptr noundef %13) #11
  %14 = tail call i64 @gtk_dialog_get_type() #15
  %15 = tail call ptr @g_type_check_instance_cast(ptr noundef %11, i64 noundef %14) #11
  %16 = tail call ptr @gtk_dialog_get_content_area(ptr noundef %15) #11
  %17 = tail call ptr @gtk_scrolled_window_new(ptr noundef null, ptr noundef null) #11
  tail call void @gtk_widget_set_vexpand(ptr noundef %17, i32 noundef 1) #11
  %18 = tail call ptr (i32, ...) @gtk_list_store_new(i32 noundef 1, i64 noundef 64) #11
  %.not38 = icmp eq ptr %0, null
  br i1 %.not38, label %._crit_edge, label %.lr.ph

._crit_edge:                                      ; preds = %.lr.ph, %1
  %19 = tail call i64 @gtk_tree_model_get_type() #15
  %20 = call ptr @g_type_check_instance_cast(ptr noundef %18, i64 noundef %19) #11
  %21 = call ptr @gtk_tree_view_new_with_model(ptr noundef %20) #11
  %22 = tail call i64 @gtk_tree_view_get_type() #15
  %23 = call ptr @g_type_check_instance_cast(ptr noundef %21, i64 noundef %22) #11
  call void @gtk_tree_view_set_headers_visible(ptr noundef %23, i32 noundef 0) #11
  %24 = tail call i64 @gtk_widget_get_type() #15
  %25 = call ptr @g_type_check_instance_cast(ptr noundef %21, i64 noundef %24) #11
  call void @gtk_widget_set_name(ptr noundef %25, ptr noundef nonnull @.str.32) #11
  %26 = call ptr @dcgettext(ptr noundef null, ptr noundef nonnull @.str.33, i32 noundef 5) #11
  %27 = call ptr @gtk_cell_renderer_text_new() #11
  %28 = call ptr (ptr, ptr, ...) @gtk_tree_view_column_new_with_attributes(ptr noundef %26, ptr noundef %27, ptr noundef nonnull @.str.34, i32 noundef 0, ptr noundef null) #11
  %29 = call ptr @g_type_check_instance_cast(ptr noundef %21, i64 noundef %22) #11
  %30 = call i32 @gtk_tree_view_append_column(ptr noundef %29, ptr noundef %28) #11
  %31 = tail call i64 @gtk_container_get_type() #15
  %32 = call ptr @g_type_check_instance_cast(ptr noundef %17, i64 noundef %31) #11
  call void @gtk_container_add(ptr noundef %32, ptr noundef %21) #11
  %33 = tail call i64 @gtk_scrolled_window_get_type() #15
  %34 = call ptr @g_type_check_instance_cast(ptr noundef %17, i64 noundef %33) #11
  call void @gtk_scrolled_window_set_policy(ptr noundef %34, i32 noundef 2, i32 noundef 1) #11
  %35 = call ptr @g_type_check_instance_cast(ptr noundef %17, i64 noundef %33) #11
  %36 = load ptr, ptr getelementptr inbounds nuw (i8, ptr @darktable, i64 104), align 8, !tbaa !70
  %37 = getelementptr inbounds nuw i8, ptr %36, i64 1424
  %38 = load double, ptr %37, align 8, !tbaa !77
  %39 = fmul reassoc nsz arcp contract afn double %38, 2.500000e+01
  %40 = fptosi double %39 to i32
  call void @gtk_scrolled_window_set_min_content_height(ptr noundef %35, i32 noundef %40) #11
  %41 = call ptr @g_type_check_instance_cast(ptr noundef %16, i64 noundef %31) #11
  call void @gtk_container_add(ptr noundef %41, ptr noundef %17) #11
  call void @gtk_widget_show_all(ptr noundef %11) #11
  %42 = call ptr @g_type_check_instance_cast(ptr noundef %11, i64 noundef %14) #11
  %43 = call i32 @gtk_dialog_run(ptr noundef %42) #11
  call void @gtk_widget_destroy(ptr noundef %11) #11
  %44 = icmp ne i32 %43, -8
  %or.cond = or i1 %44, %.not38
  br i1 %or.cond, label %.loopexit, label %.lr.ph42

.lr.ph:                                           ; preds = %1, %.lr.ph
  %.03639 = phi ptr [ %47, %.lr.ph ], [ %0, %1 ]
  call void @llvm.lifetime.start.p0(i64 32, ptr nonnull %2) #11
  call void @gtk_list_store_append(ptr noundef %18, ptr noundef nonnull %2) #11
  %45 = load ptr, ptr %.03639, align 8, !tbaa !78
  call void (ptr, ptr, ...) @gtk_list_store_set(ptr noundef %18, ptr noundef nonnull %2, i32 noundef 0, ptr noundef %45, i32 noundef -1) #11
  call void @llvm.lifetime.end.p0(i64 32, ptr nonnull %2) #11
  %46 = getelementptr inbounds nuw i8, ptr %.03639, i64 8
  %47 = load ptr, ptr %46, align 8, !tbaa !80
  %.not = icmp eq ptr %47, null
  br i1 %.not, label %._crit_edge, label %.lr.ph

.lr.ph42:                                         ; preds = %._crit_edge, %.lr.ph42
  %.041 = phi ptr [ %51, %.lr.ph42 ], [ %0, %._crit_edge ]
  %48 = load ptr, ptr %.041, align 8, !tbaa !78
  %49 = call i32 @rmdir(ptr noundef %48) #11
  %50 = getelementptr inbounds nuw i8, ptr %.041, i64 8
  %51 = load ptr, ptr %50, align 8, !tbaa !80
  %.not37 = icmp eq ptr %51, null
  br i1 %.not37, label %.loopexit, label %.lr.ph42

.loopexit:                                        ; preds = %.lr.ph42, %._crit_edge
  call void @g_list_free_full(ptr noundef %0, ptr noundef nonnull @g_free) #11
  call void @g_object_unref(ptr noundef %18) #11
  ret i32 0
}